target datalayout = "e-m:e-p270:32:32-p271:32:32-p272:64:64-i64:64-i128:128-f80:128-n8:16:32:64-S128"
target triple = "x86_64-pc-linux-gnu"

%struct._zval_struct = type { %union._zend_value, %union.anon, %union.anon.2 }
%union._zend_value = type { i64 }
%union.anon = type { i32 }
%union.anon.2 = type { i32 }

; Function Attrs: nounwind uwtable
define dso_local i32 @add_next_index_null(ptr noundef %0) #0 {
  %2 = alloca ptr, align 8
  %3 = alloca %struct._zval_struct, align 8
  store ptr %0, ptr %2, align 8, !tbaa !8
  call void @llvm.lifetime.start.p0(i64 16, ptr %3) #21
  br label %4

4:                                                ; preds = %1
  %5 = getelementptr inbounds nuw %struct._zval_struct, ptr %3, i32 0, i32 1
  store i32 1, ptr %5, align 8, !tbaa !44
  br label %6

6:                                                ; preds = %4
  br label %7

7:                                                ; preds = %6
  %8 = load ptr, ptr %2, align 8, !tbaa !8
  %9 = getelementptr inbounds nuw %struct._zval_struct, ptr %8, i32 0, i32 0
  %10 = load ptr, ptr %9, align 8, !tbaa !44
  %11 = call ptr @zend_hash_next_index_insert(ptr noundef %10, ptr noundef %3)
  %12 = icmp ne ptr %11, null
  %13 = select i1 %12, i32 0, i32 -1
  call void @llvm.lifetime.end.p0(i64 16, ptr %3) #21
  ret i32 %13
}