; Function Attrs: nounwind uwtable
define dso_local range(i32 -1, 1) i32 @add_next_index_null(ptr noundef readonly captures(none) %0) local_unnamed_addr #2 {
  %2 = alloca %struct._zval_struct, align 8
  call void @llvm.lifetime.start.p0(i64 16, ptr nonnull %2) #34
  %3 = getelementptr inbounds nuw i8, ptr %2, i64 8
  store i32 1, ptr %3, align 8, !tbaa !42
  %4 = load ptr, ptr %0, align 8, !tbaa !42
  %5 = call ptr @zend_hash_next_index_insert(ptr noundef %4, ptr noundef nonnull %2) #34
  %.not = icmp eq ptr %5, null
  %6 = sext i1 %.not to i32
  call void @llvm.lifetime.end.p0(i64 16, ptr nonnull %2) #34
  ret i32 %6
}